(dp0
S'ErbB23_bind_PI3K_4kr'
p1
cnumpy.core.multiarray
scalar
p2
(cnumpy
dtype
p3
(S'f8'
p4
I0
I1
tp5
Rp6
(I3
S'<'
p7
NNNI-1
I-1
I0
tp8
bS">\xca}\xa8\xb0\xc3'?"
p9
tp10
Rp11
sS'ErbB3_bind_ATPkf'
p12
g2
(g6
S'\x7fA[\x8bN\x17R>'
p13
tp14
Rp15
sS'PP2A_III_0'
p16
F450000.0
sS'AKT_0'
p17
F905000.0
sS'erbb2_0'
p18
F462000.0
sS'RAS_PI3K_cat_PIPkr'
p19
g2
(g6
S'Gz^\t \xd6p?'
p20
tp21
Rp22
sS'ErbB23_bind_PI3K_2kr'
p23
g2
(g6
S'\xae\xda\x01\x9d\xeb\xabE@'
p24
tp25
Rp26
sS'GAB1_0'
p27
F94868.3
sS'MEKPP_PP2kr'
p28
g2
(g6
S'\xc48\xf9]N]\x9d@'
p29
tp30
Rp31
sS'DEP_0'
p32
F70000.0
sS'kcd11'
p33
g2
(g6
S'\xb1\xd3\xa3\xa2J\xf5\xcb@'
p34
tp35
Rp36
sS'kcd12'
p37
g2
(g6
S'MIC\xae:\t\xb9@'
p38
tp39
Rp40
sS'kcd13'
p41
g2
(g6
S'\xad\xbel\x14\x08\xe1\x86@'
p42
tp43
Rp44
sS'ErbB23_bind_PI3K_4kf'
p45
g2
(g6
S'\xa1\t4\xae\xa5\xfd\xfc='
p46
tp47
Rp48
sS'ErbB3_bind_ATPkr'
p49
g2
(g6
S'\xf1\t\xc5uNk\x08@'
p50
tp51
Rp52
sS'ErbB23_bind_PI3K_5kr'
p53
g2
(g6
S'\x0c\xcd\xf4\xf3V\t`?'
p54
tp55
Rp56
sS'SHP2_dephos_GAB1Pkr'
p57
g2
(g6
S'?\xce\x90"\xc8\xc7\xbf?'
p58
tp59
Rp60
sS'MEKPP_PP2kf'
p61
g2
(g6
S'\x8c\xc4J\x99\xdd9@?'
p62
tp63
Rp64
sS'ERKP_PP3kf'
p65
g2
(g6
S'h\x88\x9eq\xf7p\xea>'
p66
tp67
Rp68
sS'AKTPP_dephoskr'
p69
g2
(g6
S'V\xa9\x1b\xcdx\xdbn?'
p70
tp71
Rp72
sS'ERKP_PP3kc'
p73
g2
(g6
S'5\xb9\xe2x\xda\xb8\xd2?'
p74
tp75
Rp76
sS'MEKPP_PP2kc'
p77
g2
(g6
S'"\xc8\xb6\xb2C\xa7N@'
p78
tp79
Rp80
sS'ErbB2P_ErbBXP_bindkr'
p81
g2
(g6
S'\r`]\xd2\xd2\xbe\x8d?'
p82
tp83
Rp84
sS'SOS_bind_GAP_GRB2kr'
p85
g2
(g6
S'\xce\xb3\x1d\xf5\xe2\xaa\xb2?'
p86
tp87
Rp88
sS'Pase9t_dephos_GAB1PPkf'
p89
g2
(g6
S'K\x8a\xdd9\xce~*>'
p90
tp91
Rp92
sS'ErbB1L_bind_ErbB4kf'
p93
g2
(g6
S'LF:sc;@>'
p94
tp95
Rp96
sS'kcp23'
p97
g2
(g6
S'#\x88\x16\x1b+/\xac?'
p98
tp99
Rp100
sS'kcp22'
p101
g2
(g6
S'\xed\xdd\xd4\x19\xd8\xcd\xf2?'
p102
tp103
Rp104
sS'RAFP_PP1kf'
p105
g2
(g6
S'eSY?\x8c\x13\xd0>'
p106
tp107
Rp108
sS'ErbB2_bind_ErbB3kf'
p109
g2
(g6
S'\x99\xf0E\x1c#|$>'
p110
tp111
Rp112
sS'RAFP_MEKPkr'
p113
g2
(g6
S'\xce\x9bb\xa3D\xbb\xbb?'
p114
tp115
Rp116
sS'GRB2_SOS_bind_SHCP_GAPkr'
p117
g2
(g6
S'\xce^?\xe4@a\xd7?'
p118
tp119
Rp120
sS'RAFP_PP1kc'
p121
g2
(g6
S'\xe3\xb5c=[s~?'
p122
tp123
Rp124
sS'ERKPP_phos_SOSkr'
p125
g2
(g6
S'\x0f\xb9\x96\x19q%\xe1?'
p126
tp127
Rp128
sS'GRB2_bind_SOSkf'
p129
g2
(g6
S'\x0fkr\xa8\x89\xc5\xff>'
p130
tp131
Rp132
sS'ErbB_bind_GAP_2kf'
p133
F9.34641e-06
sS'ErbB2_lateralsignal_k4'
p134
g2
(g6
S'x\xc5\x92\xbd\x04v\xd5>'
p135
tp136
Rp137
sS'ErbB2P_ErbBXP_bindkf'
p138
g2
(g6
S'5?\xb9>\x9c\xb2K>'
p139
tp140
Rp141
sS'GRB2_SOS_bind_SHCP_GAPkf'
p142
g2
(g6
S'\xe7\xf2\x9akuKd?'
p143
tp144
Rp145
sS'PIP3_dephoskf'
p146
g2
(g6
S'\xca\x86\xad\xfc\xbd\x07D>'
p147
tp148
Rp149
sS'ERKPP_phos_SOSkf'
p150
g2
(g6
S'\x16$\xf9\x02]\xf5\x02?'
p151
tp152
Rp153
sS'GRB2_bind_SOSkr'
p154
g2
(g6
S'AM\xbd\xb6\xd3r1?'
p155
tp156
Rp157
sS'SHP2_0'
p158
F1000000.0
sS'ErbB2_bind_ErbB3kr'
p159
g2
(g6
S'l)\x91,\xca\x17g?'
p160
tp161
Rp162
sS'ERKPP_phos_SOSkc'
p163
g2
(g6
S'\xba\xfb\x9b\xe0\xd6\x1d\x18@'
p164
tp165
Rp166
sS'SHCP_bind_GRB2SOSkr'
p167
g2
(g6
S'\xe8\x92\xc1o\xca\xdf\xb6?'
p168
tp169
Rp170
sS'SHP2_dephos_GAB1Pkc'
p171
g2
(g6
S'\xfaD\x7fFf\xfa\xd4?'
p172
tp173
Rp174
sS'RASGDP_bind_PI3Kkf'
p175
F0.0047067
sS'EGF_bind_ErbB1dkf'
p176
g2
(g6
S'\xfeX4\xdc\xfa\x1bHA'
p177
tp178
Rp179
sS'ErbB1P_ErbBXP_bindkr'
p180
g2
(g6
S'\x8d\x94\x01\xd3CLj@'
p181
tp182
Rp183
sS'RASGTPact_bind_bound_GRB2_SOSkf'
p184
F1.1068e-05
sS'Pase9t_0'
p185
F0.0
sS'GAB1_bind_ATPkr'
p186
g2
(g6
S'\x1fw\xff\xabYf\x10@'
p187
tp188
Rp189
sS'RAS_PI3K_cat_PIPkf'
p190
g2
(g6
S'w\xa1\x00\xb1DC^>'
p191
tp192
Rp193
sS'SHCP_bind_GRB2SOSkf'
p194
g2
(g6
S':&\x1c\xb3\xe2\x07=?'
p195
tp196
Rp197
sS'ATP_0'
p198
F1200000000.0
sS'ErbB1P_ErbBXP_bindkf'
p199
g2
(g6
S'\xaf\xb7\x7f(a\x88\xea>'
p200
tp201
Rp202
sS'RASGTPact_bind_bound_GRB2_SOSkr'
p203
F0.4
sS'ERKP_PP3kr'
p204
g2
(g6
S'\xde\xbd\x93\x16\xd6\x16J@'
p205
tp206
Rp207
sS'MEKPP_ERKPkc'
p208
g2
(g6
S'\xec\xd2O\xea7\xd9K@'
p209
tp210
Rp211
sS'EGF_bind_ErbB1dkr'
p212
g2
(g6
S'\xb6(b\xd3=\xa8\x15?'
p213
tp214
Rp215
sS'MEKP_PP2kf'
p216
g2
(g6
S'\xfe\x0b\x8a\xf1\xa8\x1ek>'
p217
tp218
Rp219
sS'ERKPP_PP3kf'
p220
g2
(g6
S'\x11_\xa6\xc7k\xb4\xca?'
p221
tp222
Rp223
sS'MEKP_PP2kc'
p224
g2
(g6
S'\xde(\xa5,\xea\x94"?'
p225
tp226
Rp227
sS'ErbB1L_bind_ErbB1Lkf'
p228
g2
(g6
S'\xad\x83\xa1\xd9}!\x0b?'
p229
tp230
Rp231
sS'RASGTP_bind_bound_GRB2_SOSkr'
p232
g2
(g6
S'k\xce7\t\x82?\xb6?'
p233
tp234
Rp235
sS'ErbB23_PI3K_cat_1kc'
p236
g2
(g6
S'hN\xf03\x02Y+>'
p237
tp238
Rp239
sS'ERKPP_PP3kc'
p240
g2
(g6
S'\xc8\x07\xb3\x1b}\xd5g?'
p241
tp242
Rp243
sS'GAB1_bind_PI3Kkf'
p244
g2
(g6
S'\xf7MA\x90\x90\xe7\xa8>'
p245
tp246
Rp247
sS'Akt_path_intern_23_PI3Kdimers_kr'
p248
g2
(g6
S'\xca\xd0L\xb1e\xfc\x93?'
p249
tp250
Rp251
sS'GRB2_SOS_0'
p252
F88900000.0
sS'ErbB1L_bind_ErbB1Lkr'
p253
g2
(g6
S'\xed$t\xcd\xdd\xae~?'
p254
tp255
Rp256
sS'RASGTP_bind_bound_GRB2_SOSkf'
p257
g2
(g6
S'&%\xb6\xae\xee\x89\xfa>'
p258
tp259
Rp260
sS'PIP3_dephoskr'
p261
g2
(g6
S'\x98\xcan\xea\x1d\xcc\xac?'
p262
tp263
Rp264
sS'erbb4_0'
p265
F794.0
sS'PTEN_0'
p266
F56200.0
sS'SHC_0'
p267
F1100000.0
sS'kcd14'
p268
g2
(g6
S'\xc3m+ rM\xd1?'
p269
tp270
Rp271
sS'GAB1_bind_PI3Kkr'
p272
g2
(g6
S'p\xc3U\xc6\xb4Y\xf0?'
p273
tp274
Rp275
sS'Akt_path_intern_23_PI3Kdimers_kf'
p276
g2
(g6
S'\xbb\xdb\x9b\x0f;\x19\xdf>'
p277
tp278
Rp279
sS'ErbB23_PI3K_cat_3kc'
p280
g2
(g6
S'\x1a\xd2\xb1\xdc\xf3\xe1\xf5>'
p281
tp282
Rp283
sS'Ras_intrinsic_function_GDPexchange'
p284
g2
(g6
S'\t\xe9\xdf*OL\x01>'
p285
tp286
Rp287
sS'PDK1_0'
p288
F300416000.0
sS'SOS_bind_SHCP_GRB2kf'
p289
g2
(g6
S'\xdd\xdft\xbf\xe9\xf7\xe7>'
p290
tp291
Rp292
sS'GAP_bind_SHCPkr'
p293
g2
(g6
S'P|\x9c\xc2\x00g\xa9?'
p294
tp295
Rp296
sS'RAS_0'
p297
F58100.0
sS'ErbB1_bind_ATPkr'
p298
g2
(g6
S'Y5\x80\xa0\xd9\x81j@'
p299
tp300
Rp301
sS'ERKPP_0'
p302
F0.0
sS'Pase9t_dephos_GAB1PPkc'
p303
g2
(g6
S'\x97\xfc\xdciu\x9f*?'
p304
tp305
Rp306
sS'PP3_0'
p307
F16900.0
sS'PIP3_bind_PDK1kf'
p308
g2
(g6
S'\xac\x05\xb4\t\r\xb1\xa2<'
p309
tp310
Rp311
sS'AKT_PIP3_bind_PDK1kf'
p312
g2
(g6
S']\xfaU.\x96\x0e"?'
p313
tp314
Rp315
sS'PIP2_PI3K_catalysiskc'
p316
g2
(g6
S'\xc2\xf8`\x9b\xf5$7@'
p317
tp318
Rp319
sS'ErbBP4_bind_DEPkf'
p320
g2
(g6
S'\x84~\x01`\xba\xcd\xf4>'
p321
tp322
Rp323
sS'CPPE_bind_ErbB1dimerskr'
p324
g2
(g6
S'\x91\xe6\x8d\xf2X\xc0\x81?'
p325
tp326
Rp327
sS'GAP_bind_SHCPkf'
p328
g2
(g6
S'y\xfdLUV$\x80>'
p329
tp330
Rp331
sS'ErbB_bind_GAP_1kf'
p332
F5.91474e-07
sS'ErbB1_bind_ATPkf'
p333
g2
(g6
S'6\xe5fL;\xc9#>'
p334
tp335
Rp336
sS'GRB2_bind_GAP_2kr'
p337
g2
(g6
S'\x1b?\x86\xde>_\xab?'
p338
tp339
Rp340
sS'ErbBP4_bind_DEPkr'
p341
g2
(g6
S'\x8f\xbe,\xee\xfc\x9c\xa4?'
p342
tp343
Rp344
sS'PIP3_bind_PDK1kr'
p345
g2
(g6
S'.\x1f\xed\xce\x81s\x84@'
p346
tp347
Rp348
sS'AKT_PIP3_bind_PDK1kr'
p349
g2
(g6
S'B\xcf\x94\x06\xffo\xaa?'
p350
tp351
Rp352
sS'ErbB2_bind_ErbB2kf'
p353
g2
(g6
S'\xd1xb\x10_a\x18>'
p354
tp355
Rp356
sS'ErbB1L_bind_ErbB3kr'
p357
g2
(g6
S'm\xd1\xb6-\xbc:\xbb?'
p358
tp359
Rp360
sS'GRB2_bind_GAP_2kf'
p361
g2
(g6
S"\x8d\xcb\x9dA'|^?"
p362
tp363
Rp364
sS'PIP2_bind_PI3K_1kr'
p365
g2
(g6
S'\x81\xd0\xc7\xaf\xec\x82\x02@'
p366
tp367
Rp368
sS'PIP3_bind_AKTkf'
p369
g2
(g6
S'\x15!\x93\xbd\xae\x9f\xbd>'
p370
tp371
Rp372
sS'RAFP_MEKPkc'
p373
g2
(g6
S'Jq\x99\x91\x87\x17\xa0?'
p374
tp375
Rp376
sS'HRG_bind_ErbB4kr'
p377
F0.0103115
sS'ErbB23_bind_PI3K_1kr'
p378
g2
(g6
S'\xa7\x9da\xfeL\\\xc2?'
p379
tp380
Rp381
sS'EGF_bind_ErbB1kr'
p382
g2
(g6
S'vg\xde)\x9bk\xd0?'
p383
tp384
Rp385
sS'PIP2_self_catalysiskc'
p386
g2
(g6
S'i\x89\x03[\xe5\xc9L@'
p387
tp388
Rp389
sS'ErbB2_bind_ErbB4kr'
p390
g2
(g6
S'\x9c\x9ax\xf5\xa4_\x05@'
p391
tp392
Rp393
sS'kcp21'
p394
g2
(g6
S'\xac\x8d1\xe2\xa5St@'
p395
tp396
Rp397
sS'PIP2_bind_PI3K_1kf'
p398
g2
(g6
S'9\xc8\xa9C&\xcb\xea='
p399
tp400
Rp401
sS'PIP3_bind_AKTkr'
p402
g2
(g6
S';\x8a\xcd\xcd\xbb\x9d\xf4?'
p403
tp404
Rp405
sS'ErbB2_bind_ErbB2kr'
p406
g2
(g6
S'\x8e\x80 \x12\x94\xbd\xde?'
p407
tp408
Rp409
sS'ErbB1L_bind_ErbB3kf'
p410
g2
(g6
S'TS\xdb|$\x931>'
p411
tp412
Rp413
sS'EGF_bind_ErbB1kf'
p414
g2
(g6
S'\xd2\xc1<KpTdA'
p415
tp416
Rp417
sS'ErbB2_bind_ErbB4kf'
p418
g2
(g6
S'\xea%\xff\xfc4O(>'
p419
tp420
Rp421
sS'RASGDP_bind_PI3Kkr'
p422
F0.1
sS'HRG_bind_ErbB4kf'
p423
F10000000.0
sS'RAS_PI3K_cat_PIPkc'
p424
g2
(g6
S'U\x11|r*l\x17@'
p425
tp426
Rp427
sS'MEKP_PP2kr'
p428
g2
(g6
S'\xa4.\xd5\x1a4\x1cq@'
p429
tp430
Rp431
sS'SHC_phoskf'
p432
g2
(g6
S'\xda .\xb2\t\xcc\xb0?'
p433
tp434
Rp435
sS'CPP_intkr'
p436
g2
(g6
S"\xba\x97':\xaf\x17\xe5<"
p437
tp438
Rp439
sS'ERKPP_PP3kr'
p440
g2
(g6
S'\xde7\x08\xc9\x01D\xe7?'
p441
tp442
Rp443
sS'kcp24'
p444
g2
(g6
S'X\x00\xae\x82\x83\xa1\xf1?'
p445
tp446
Rp447
sS'RAFP_MEKkr'
p448
g2
(g6
S'\xf1\x8b\xa0\x12B2\x99?'
p449
tp450
Rp451
sS'ERKPP_phos_GAB1Pkc'
p452
g2
(g6
S'\xa3\x10\xc2*\xb9}\xd0?'
p453
tp454
Rp455
sS'ErbB1_bind_ErbB4kf'
p456
g2
(g6
S'(\x19\xdc&[>\xfe='
p457
tp458
Rp459
sS'PIP3_dephoskc'
p460
g2
(g6
S'\\\xf2\xe9>2\xb6"@'
p461
tp462
Rp463
sS'ErbB23_bind_PI3K_6kf'
p464
g2
(g6
S'\x8bN\xda\x8e\xb1\xd1P>'
p465
tp466
Rp467
sS'CPP_intkf'
p468
g2
(g6
S'\x05*\n\x19\x17\x0bu>'
p469
tp470
Rp471
sS'GRB2_0'
p472
F1264.0
sS'RAFP_MEKkc'
p473
g2
(g6
S'\x94lY\xbc\x17\xe6\x15@'
p474
tp475
Rp476
sS'ErbB1_bind_ErbB4kr'
p477
g2
(g6
S'\xc0\x0b\xfb\xfa\xc3\xdd\x9b?'
p478
tp479
Rp480
sS'RAFP_MEKkf'
p481
g2
(g6
S'\xba_\xb6 O\xe7\x9d>'
p482
tp483
Rp484
sS'SOSP_bind_GRB2kf'
p485
g2
(g6
S'\xfb\xbd\xf2(\xe1\x93\xa0>'
p486
tp487
Rp488
sS'ErbB_bind_GAP_2kr'
p489
F0.02
sS'kcd43'
p490
g2
(g6
S'\x00\xc2\xab\x86\x85\xf7\xd5@'
p491
tp492
Rp493
sS'kint_no_cPP_2kf'
p494
g2
(g6
S'\xaa\x0b\x11\x02:\xf5\xb1>'
p495
tp496
Rp497
sS'kdeg_8'
p498
g2
(g6
S'\xe6\x9f`\xf8\xb0&P?'
p499
tp500
Rp501
sS'GRB2_bind_GAPkr'
p502
g2
(g6
S'\x00\xd8\x95(\x19l\xc5?'
p503
tp504
Rp505
sS'kcd44'
p506
g2
(g6
S'X\xc3J\xf9\xffHC@'
p507
tp508
Rp509
sS'kdeg_2'
p510
F0.0471248
sS'kdeg_3'
p511
F0.00052
sS'kdeg_1'
p512
g2
(g6
S'\x149\x04\xbdV\xf2\xcc>'
p513
tp514
Rp515
sS'kdeg_6'
p516
g2
(g6
S'"+\x8d\xb1\xab\x82\xf1>'
p517
tp518
Rp519
sS'kdeg_7'
p520
g2
(g6
S'\xf1P\xa3q?\xb8\n?'
p521
tp522
Rp523
sS'kdeg_4'
p524
g2
(g6
S'\x05,\x1e\x0b5\x07B?'
p525
tp526
Rp527
sS'kdeg_5'
p528
g2
(g6
S'\xa4+,\xbd\x12w\n?'
p529
tp530
Rp531
sS'PP1_0'
p532
F50000.0
sS'GRB2_bind_GAPkf'
p533
g2
(g6
S'kU\xb5$j\xd2\xea>'
p534
tp535
Rp536
sS'kint_no_cPP_2kr'
p537
g2
(g6
S'\xf7n.\x02=*\xf4>'
p538
tp539
Rp540
sS'RASGDP_bind_bound_GRB2_SOSkr'
p541
g2
(g6
S'X\x1bZE\x92\xb1\xde?'
p542
tp543
Rp544
sS'ERKPP_phos_GAB1Pkf'
p545
g2
(g6
S'\x07\xa1\x86\xfd\x05~*?'
p546
tp547
Rp548
sS'ErbBP1_bind_DEPkf'
p549
g2
(g6
S'\x89\xafs\x02\x18\xa9\x07?'
p550
tp551
Rp552
sS'SOS_bind_SHCP_GRB2kr'
p553
g2
(g6
S'\xa1\x83\xbf\xeej\x08^?'
p554
tp555
Rp556
sS'AKTPP_0'
p557
F0.0
sS'CPP_bind_ErbB1dimerskr'
p558
g2
(g6
S'\xd8\x0b\x88\xbfx\x0c0?'
p559
tp560
Rp561
sS'kcp42'
p562
g2
(g6
S'\xd9sQ\xa0!\x02\x82?'
p563
tp564
Rp565
sS'ErbB_bind_GAP_1kr'
p566
F0.2
sS'PP2_0'
p567
F125000.0
sS'AKTPP_phos_RAFPkr'
p568
g2
(g6
S'C\xa5\x94\xc6\xb88k?'
p569
tp570
Rp571
sS'ErbB23_PI3K_cat_4kc'
p572
g2
(g6
S'^\x86l\x02m\xa9\xf3>'
p573
tp574
Rp575
sS'ErbB1L_bind_ErbB4kr'
p576
g2
(g6
S':\xd8\xb8\xd3<\xb2\x0f?'
p577
tp578
Rp579
sS'CPP_bind_ErbB1dimerskf'
p580
g2
(g6
S'\x13q\x811\x1d"\x04?'
p581
tp582
Rp583
sS'ErbBP1_bind_DEPkr'
p584
g2
(g6
S'\xc6\xd8UO\xf2\x15\xa0?'
p585
tp586
Rp587
sS'ErbB23_PI3K_cat_6kc'
p588
g2
(g6
S'\xf4\xe9S\xca3\xa9\x9a>'
p589
tp590
Rp591
sS'AKTPP_phos_RAFPkf'
p592
g2
(g6
S'\x1c\x9ab\x15-\xb1\xd0>'
p593
tp594
Rp595
sS'AKTPP_phos_RAFPkc'
p596
g2
(g6
S'\x8a>@sM*\xec?'
p597
tp598
Rp599
sS'EGF_bind_ErbB2_ErbB3kf'
p600
F800.0
sS'ErbB1_bind_ErbB2kf'
p601
g2
(g6
S'\x06n\xbfwX\xe0Y>'
p602
tp603
Rp604
sS'ErbB2_bind_ATPkr'
p605
F1.0
sS'EGF_bind_ErbB2_ErbB4kr'
p606
F0.1
sS'ErbB1L_bind_ErbB2kr'
p607
g2
(g6
S'7\x8b\xa5_KD"@'
p608
tp609
Rp610
sS'ERKPP_phos_GAB1Pkr'
p611
g2
(g6
S'\xae\xd3{\x91\xb4\x0b`?'
p612
tp613
Rp614
sS'ErbB23_bind_PI3K_6kr'
p615
g2
(g6
S'\xc1\x0b\xd7|\x8a\x04_?'
p616
tp617
Rp618
sS'CPPE_bind_ErbB1dimerskf'
p619
g2
(g6
S'b\x07\xed+\xad\xbb7='
p620
tp621
Rp622
sS'ErbB1_bind_ErbB2kr'
p623
g2
(g6
S'\xd8\xaa\x92\xee\xe0\xeaj?'
p624
tp625
Rp626
sS'ErbB2_bind_ATPkf'
p627
F-6.1296
sS'EGF_bind_ErbB2_ErbB4kf'
p628
F518.0
sS'EGF_bind_ErbB2_ErbB3kr'
p629
F1.0
sS'PI3K_0'
p630
F35565600.0
sS'ErbB1L_bind_ErbB2kf'
p631
g2
(g6
S'\x9b\x9d<\x82\xb8\xcc\x05?'
p632
tp633
Rp634
sS'SOSP_bind_GRB2kr'
p635
g2
(g6
S'\x81+\x8ca)\x95<?'
p636
tp637
Rp638
sS'PIP_0'
p639
F394000.0
sS'GRB2_bind_GAB1kf'
p640
g2
(g6
S'\xb2\xb3\xfc\xa6\x85\xf8$?'
p641
tp642
Rp643
sS'kcd42'
p644
g2
(g6
S'|\xa0#\xcd\xad\xdc\x00@'
p645
tp646
Rp647
sS'Akt_path_intern_1Xdimers_kf'
p648
g2
(g6
S'\xaav\xc8\xa9tc\xe0>'
p649
tp650
Rp651
sS'Ras_intrinsic_function_GTPase'
p652
g2
(g6
S'\x03\x0c\xde!\x0f\xd1\x08?'
p653
tp654
Rp655
sS'GRB2_SOS_bind_GAPkf'
p656
g2
(g6
S'}X\x92\x84?\xa5\x06?'
p657
tp658
Rp659
sS'kcd41'
p660
g2
(g6
S'\x85]\xb0\x02\xaf\x9c\xfd?'
p661
tp662
Rp663
sS'RASGTP_bind_PI3Kkf'
p664
g2
(g6
S'\x99n\x0f\xd5m\xd0i>'
p665
tp666
Rp667
sS'RAFP_MEKPkf'
p668
g2
(g6
S'\xd9(\xb7\xa8\xda\x01\xde>'
p669
tp670
Rp671
sS'ERK_0'
p672
F695000.0
sS'GRB2_bind_GAB1kr'
p673
g2
(g6
S'f1k\x04%\xfeB?'
p674
tp675
Rp676
sS'AKTPP_dephoskc'
p677
g2
(g6
S'>\xe1\xb4\x82\x16$S?'
p678
tp679
Rp680
sS'RASGTP_bind_PI3Kkr'
p681
g2
(g6
S'QbB\x97\x9c"\xe1?'
p682
tp683
Rp684
sS'Akt_path_intern_1Xdimers_kr'
p685
g2
(g6
S'\xb5\x98$^\xbb\xcb2@'
p686
tp687
Rp688
sS'PIP2_chain_PI3Kkf'
p689
g2
(g6
S'\xde\xe5\x85\xe8\\\x99\xf8>'
p690
tp691
Rp692
sS'GRB2_SOS_bind_GAPkr'
p693
g2
(g6
S'\x87\xe8yZ\xeeW\xc3?'
p694
tp695
Rp696
sS'CPP_0'
p697
F5000.0
sS'GAP_bind_SHCP_GRB2_SOSkf'
p698
g2
(g6
S'w\x9f\xa5\xd7\xdf\xb0\xe8>'
p699
tp700
Rp701
sS'RASGTP_unbind_GRB2_SOSkf'
p702
g2
(g6
S'd\x03\xe5P\xf6\xb0\xda>'
p703
tp704
Rp705
sS'MEKPP_ERKkr'
p706
g2
(g6
S' S\xdd\xdeX0m?'
p707
tp708
Rp709
sS'kcd21'
p710
g2
(g6
S'\xec\x00o\x9c\xd6J\xb5@'
p711
tp712
Rp713
sS'ErbB1_bind_ErbB1Lkf'
p714
g2
(g6
S'A\xact\xa2\x1b\x9d\xe1>'
p715
tp716
Rp717
sS'kint_no_cPP_1kr'
p718
g2
(g6
S'\xbfA\xa5\xbf\xeb\xba\xe2>'
p719
tp720
Rp721
sS'kcd22'
p722
g2
(g6
S'\xb5\xd2\xd6\x8d5\xd7\x1b@'
p723
tp724
Rp725
sS'kcd24'
p726
g2
(g6
S'V\xdd\xfe\xb2\xd6ff@'
p727
tp728
Rp729
sS'Akt_path_intern_2Xdimers_kr'
p730
g2
(g6
S'\xbe\xd5\x0f\xe9_2\xf9>'
p731
tp732
Rp733
sS'MEKPP_ERKkf'
p734
g2
(g6
S'\xa4\x19#q\xb8\xbc\x14?'
p735
tp736
Rp737
sS'kcp14'
p738
g2
(g6
S'Af\xa0h\xac]3@'
p739
tp740
Rp741
sS'kcp44'
p742
g2
(g6
S"C\xab\x97'\xd2\xbc\xda?"
p743
tp744
Rp745
sS'MEKPP_ERKkc'
p746
g2
(g6
S'\x14\xc3\xc7@\xa2\x12\xdb?'
p747
tp748
Rp749
sS'RASGTP_unbind_GRB2_SOSkr'
p750
g2
(g6
S"\x88!'\xea\xccll?"
p751
tp752
Rp753
sS'kcp43'
p754
g2
(g6
S'\x9b@3\xee\x19\xef\xe7?'
p755
tp756
Rp757
sS'Akt_path_intern_2Xdimers_kf'
p758
g2
(g6
S'\x9d\xb7\x8a0\xd0\x88\x94?'
p759
tp760
Rp761
sS'ErbB1_bind_ErbB1Lkr'
p762
g2
(g6
S'\x15\x82\x80\x16\xca\xee\xe2?'
p763
tp764
Rp765
sS'kint_no_cPP_1kf'
p766
g2
(g6
S'\x80\x00gk\x9a\x05\xee?'
p767
tp768
Rp769
sS'ErbB23_bind_PI3K_5kf'
p770
g2
(g6
S'\xddr\xd8z\xa4\xae">'
p771
tp772
Rp773
sS'GAP_bind_SHCP_GRB2_SOSkr'
p774
g2
(g6
S'\xeb(\x940\xe4\xa2\x9b?'
p775
tp776
Rp777
sS'ErbB23_bind_PI3K_3kf'
p778
g2
(g6
S'Q\xfdB\xe18\xc7\xa2>'
p779
tp780
Rp781
sS'ErbB23_bind_PI3K_1kf'
p782
g2
(g6
S'^\xffL\x94A_n>'
p783
tp784
Rp785
sS'Pase9t_dephos_GAB1PPkr'
p786
g2
(g6
S'\xa8\x10\x1cY\x08\xcd\xd0?'
p787
tp788
Rp789
sS'erbb3_0'
p790
F6230.0
sS'kcp11'
p791
g2
(g6
S'\xb6~\xff\x94$\x19\x11@'
p792
tp793
Rp794
sS'erbb1_0'
p795
F1080000.0
sS'PDK1_AKTP_catalysiskc'
p796
g2
(g6
S'\xfb_JY\xac\x0f_@'
p797
tp798
Rp799
sS'ErbB23_bind_PI3K_3kr'
p800
g2
(g6
S'z\x88\xeaU[r\x8f?'
p801
tp802
Rp803
sS'ErbB23_bind_PI3K_2kf'
p804
g2
(g6
S'\x9a\xf3\xfa\xbbkB\xff>'
p805
tp806
Rp807
sS'kcp12'
p808
g2
(g6
S'\xfe\x97F\x15\xca\xd8\xaf?'
p809
tp810
Rp811
sS'kcp41'
p812
g2
(g6
S'\xbd\xa8\x19\x12\x9dD\xb2?'
p813
tp814
Rp815
sS'SHC_phoskr'
p816
g2
(g6
S'\xe4\xe8\x10\xaa\xec\xd3\xd1?'
p817
tp818
Rp819
sS'kcp13'
p820
g2
(g6
S'\xa2\xe7\x14\x99\x9dk\xf1?'
p821
tp822
Rp823
sS'GAP_bind_SHCkf'
p824
g2
(g6
S'26\xe4\xc2\x10ZP>'
p825
tp826
Rp827
sS'RASGDP_bind_bound_GRB2_SOSkf'
p828
g2
(g6
S'P\xb2A\xf1DB\xd2>'
p829
tp830
Rp831
sS'ErbB4_bind_ATPkf'
p832
g2
(g6
S'\x1d\x8e4\xaf\x19\xd2\x07>'
p833
tp834
Rp835
sS'HRG_bind_ErbB3kf'
p836
F10000000.0
sS'ErbB1_bind_ErbB3kr'
p837
g2
(g6
S'\xd4\xfd\x9cU\xdc\xa7\x02@'
p838
tp839
Rp840
sS'SHC_unbound_phoskf'
p841
g2
(g6
S'\xc5\xcf\x87\xc0\x00\r\x90<'
p842
tp843
Rp844
sS'MEKPP_ERKPkr'
p845
g2
(g6
S'\xa9\x1e}\xd9"\x0c\xce?'
p846
tp847
Rp848
sS'EGFE_bind_ErbBEkr'
p849
g2
(g6
S'\x16\x8b\xb0j\xf6\xa4\x9e?'
p850
tp851
Rp852
sS'ErbB4_bind_ATPkr'
p853
g2
(g6
S'\x9b\x12\xcf-\xa3\x90\xe0?'
p854
tp855
Rp856
sS'HRG_bind_ErbB3kr'
p857
F0.0103115
sS'ErbB2_lateralsignal_k3'
p858
g2
(g6
S'\x05\x1c\xa3\x17`\x1d,>'
p859
tp860
Rp861
sS'GAP_bind_SHCkr'
p862
g2
(g6
S'\x0e\x04\xac\x99\xde\xaa\xcd?'
p863
tp864
Rp865
sS'SHP_0'
p866
F2210.0
sS'GAB1_bind_ATPkf'
p867
g2
(g6
S'A\xf2\x91\xf5,)\x90>'
p868
tp869
Rp870
sS'EGFE_bind_ErbBEkf'
p871
g2
(g6
S'\x1b)\x08\xa1\xc9\xb6\x97?'
p872
tp873
Rp874
sS'PDK1_AKT_catalysiskc'
p875
g2
(g6
S'\xbbt\xdd\xa7\x10xp@'
p876
tp877
Rp878
sS'ErbB1_bind_ErbB3kf'
p879
g2
(g6
S"I'\x06\xce\xa3\xc4S>"
p880
tp881
Rp882
sS'MEK_0'
p883
F3020000.0
sS'SHC_unbound_phoskr'
p884
g2
(g6
S'\xe3\xdb\xd9\x12\x8bg\x8a?'
p885
tp886
Rp887
sS'MEKPP_ERKPkf'
p888
g2
(g6
S'\x9dt\x99s\xca\xcc\xe0>'
p889
tp890
Rp891
sS'RASGTP_RAF_catkc'
p892
g2
(g6
S'\xc8s\xc69\x92\x96\xe7?'
p893
tp894
Rp895
sS'ErbB1_bind_ErbB1kf'
p896
g2
(g6
S'\xde\xe8\x90d\x13q\xee>'
p897
tp898
Rp899
sS'PP3_degkf'
p900
g2
(g6
S'O\xf1O\x83T\rD?'
p901
tp902
Rp903
sS'RASGTP_bind_RAFkr'
p904
g2
(g6
S'*\xa0\x82\x8a\xdb3\x8d?'
p905
tp906
Rp907
sS'GAB1_bind_PI3K_2kr'
p908
g2
(g6
S'\xaa\xcc3\xcc\x8a\xff\x9b?'
p909
tp910
Rp911
sS'SHP2_dephos_GAB1Pkf'
p912
g2
(g6
S'&B\xc5\x1e0\xe1u?'
p913
tp914
Rp915
sS'kcd23'
p916
g2
(g6
S'\xc6n\xd9\xd6f\xb9\xad@'
p917
tp918
Rp919
sS'ErbB1_bind_ErbB1kr'
p920
g2
(g6
S'\x97b\x95\xdb\x8e\xc0\xe7?'
p921
tp922
Rp923
sS'RAF_0'
p924
F71100.0
sS'SOS_bind_GAP_GRB2kf'
p925
g2
(g6
S'\xa5\x80r*@T\xf1>'
p926
tp927
Rp928
sS'RASGTP_bind_RAFkf'
p929
g2
(g6
S'\xccj!\xb3JXf?'
p930
tp931
Rp932
sS'GAB1_bind_PI3K_2kf'
p933
g2
(g6
S'%\xf9B\xb5\xb1v\xce>'
p934
tp935
Rp936
sS'AKTPP_dephoskf'
p937
g2
(g6
S'S\xf5\x11w,`\xaa>'
p938
tp939
Rp940
sS'GAP_0'
p941
F535000.0
sS'SOS_bind_GAP_SHCP_GRB2kf'
p942
g2
(g6
S'\x97\xbe\xd3Q\xe8\x8f)?'
p943
tp944
Rp945
sS'ErbBP2_bind_DEPkf'
p946
g2
(g6
S'=w\xf6\x91{\xe8\x12?'
p947
tp948
Rp949
sS'AKTP_dephoskf'
p950
g2
(g6
S'\x00\xd8\xe0(\x9b\xf2??'
p951
tp952
Rp953
sS'GAB1_phoskc'
p954
g2
(g6
S'\xd9\x86\x19\x8aZ\xd4\x9e?'
p955
tp956
Rp957
sS'AKTP_dephoskc'
p958
g2
(g6
S'99\x06\xf6\xe2\x9a\xf9>'
p959
tp960
Rp961
sS'RASGDP_bind_PI3Kkc'
p962
F177.828
sS'ErbB23_PI3K_cat_5kc'
p963
g2
(g6
S'k\xa21\xb7\x8a\x8c2?'
p964
tp965
Rp966
sS'SOS_bind_GAP_SHCP_GRB2kr'
p967
g2
(g6
S'G\x14\x97I\xe2\x88\xd8?'
p968
tp969
Rp970
sS'ErbBP2_bind_DEPkr'
p971
g2
(g6
S'\x89\x9f\xb5^\x88\xb5\x04@'
p972
tp973
Rp974
sS'PIP2_chain_PI3Kkr'
p975
g2
(g6
S'\x98?\x164\xaf\xb7\xbc?'
p976
tp977
Rp978
sS'EGF_0'
p979
F3010000000000.0
sS'ErbB23_PI3K_cat_2kc'
p980
g2
(g6
S'G\xab\xd9&\xc9\xc1l>'
p981
tp982
Rp983
sS'AKTP_dephoskr'
p984
g2
(g6
S'\xa954*\x00\x89\xec?'
p985
tp986
Rp987
sS'RAFP_PP1kr'
p988
g2
(g6
S'\x96~r\x19+`\xb1?'
p989
tp990
Rp991
s.