(dp0
S'ErbB23_bind_PI3K_4kr'
p1
F0.1
sS'ErbB3_bind_ATPkf'
p2
F1.8704e-08
sS'RAS_PI3K_cat_PIPkr'
p3
F0.1
sS'ErbB23_bind_PI3K_2kr'
p4
F0.1
sS'MEKPP_PP2kr'
p5
cnumpy.core.multiarray
scalar
p6
(cnumpy
dtype
p7
(S'f8'
p8
I0
I1
tp9
Rp10
(I3
S'<'
p11
NNNI-1
I-1
I0
tp12
bS'\xdc\x02\x8b\xe6E\xa6&@'
p13
tp14
Rp15
sS'ERKP_PP3kr'
p16
g6
(g10
S'\xe4\x96l\xa8\x17\xcaA@'
p17
tp18
Rp19
sS'kcd11'
p20
g6
(g10
S'\xeeOA\xf6\xc5\xf1\x15@'
p21
tp22
Rp23
sS'kcd12'
p24
g6
(g10
S'oT?\x94T{=@'
p25
tp26
Rp27
sS'kcd13'
p28
g6
(g10
S'\x01i>\x15V\x8b#@'
p29
tp30
Rp31
sS'ErbB23_bind_PI3K_4kf'
p32
F1.33e-08
sS'ErbB3_bind_ATPkr'
p33
F1.0
sS'SHP2_dephos_GAB1Pkr'
p34
g6
(g10
S'Sp/~_}\xa7?'
p35
tp36
Rp37
sS'MEKPP_PP2kf'
p38
g6
(g10
S'8\x91Qfut\xdf>'
p39
tp40
Rp41
sS'ERKP_PP3kf'
p42
g6
(g10
S'\x8e\xeb\xe6g\xbfo\xb7>'
p43
tp44
Rp45
sS'ERKP_PP3kc'
p46
g6
(g10
S'\x1aD\xb2\xf4/\x87\x8c?'
p47
tp48
Rp49
sS'MEKPP_PP2kc'
p50
g6
(g10
S'\xb4 \xf7y\xb6}\xab?'
p51
tp52
Rp53
sS'ErbB2P_ErbBXP_bindkr'
p54
g6
(g10
S'&\x08\x12 \xd8\xca\xef='
p55
tp56
Rp57
sS'SOS_bind_GAP_GRB2kr'
p58
g6
(g10
S'\xc2\xbf\xb6\x0b\xc6\xb8\xe0?'
p59
tp60
Rp61
sS'Pase9t_dephos_GAB1PPkf'
p62
g6
(g10
S'\x86\xad\xeb\x14\xac\xedc>'
p63
tp64
Rp65
sS'kcp23'
p66
g6
(g10
S'\xef>\r\x84#\x1d\x85?'
p67
tp68
Rp69
sS'kcp22'
p70
g6
(g10
S'J\xc8\x9a^\xc6\xf7\xcc?'
p71
tp72
Rp73
sS'RAFP_PP1kf'
p74
g6
(g10
S'\x9fx\xc6\x86Q5!?'
p75
tp76
Rp77
sS'ErbB2_bind_ErbB3kf'
p78
g6
(g10
S'\x84\r \x0etQM>'
p79
tp80
Rp81
sS'RAFP_MEKPkr'
p82
g6
(g10
S'(\xbck\x05\x8c\n\xbf?'
p83
tp84
Rp85
sS'GRB2_SOS_bind_SHCP_GAPkr'
p86
g6
(g10
S'\x92x\xae\xe2(\x11\x91?'
p87
tp88
Rp89
sS'RAFP_PP1kc'
p90
g6
(g10
S'b66R\xa2\x11d@'
p91
tp92
Rp93
sS'ERKPP_phos_SOSkr'
p94
g6
(g10
S'\xe1\xf8R\xc4\xc4\xd8\xe7?'
p95
tp96
Rp97
sS'GRB2_bind_SOSkf'
p98
g6
(g10
S'\x9d\x87\xdfC\x08v\xf0>'
p99
tp100
Rp101
sS'ErbB2P_ErbBXP_bindkf'
p102
F8.36983e-09
sS'GRB2_SOS_bind_SHCP_GAPkf'
p103
g6
(g10
S'\x07\x0f\xcb\xda@N\x18?'
p104
tp105
Rp106
sS'ERKPP_phos_SOSkf'
p107
g6
(g10
S'\xfc\x83lU\xfd\x8f\xce>'
p108
tp109
Rp110
sS'GRB2_bind_SOSkr'
p111
g6
(g10
S'\x1d\x9e\x97s6RQ?'
p112
tp113
Rp114
sS'RAFP_PP1kr'
p115
g6
(g10
S'1\xb8\xc2\x17\x81?q?'
p116
tp117
Rp118
sS'ErbB2_bind_ErbB3kr'
p119
g6
(g10
S'\xb7\xbe{\xdf\xafQ\xa7?'
p120
tp121
Rp122
sS'ERKPP_phos_SOSkc'
p123
g6
(g10
S'\n \xa8\xa7\xfd\xc4)@'
p124
tp125
Rp126
sS'SHCP_bind_GRB2SOSkr'
p127
g6
(g10
S'\x05\xa4\xed\x93\xaa:\xdc?'
p128
tp129
Rp130
sS'SHP2_dephos_GAB1Pkc'
p131
g6
(g10
S'\xdfV\xfc|0\xc33@'
p132
tp133
Rp134
sS'EGF_bind_ErbB1dkf'
p135
F10000000.0
sS'ErbB1P_ErbBXP_bindkr'
p136
g6
(g10
S'\xb6\x0e\xe3-\xf8\x13\xdf?'
p137
tp138
Rp139
sS'GAB1_bind_ATPkr'
p140
g6
(g10
S'\xcb\xe4(NF\x98\x02@'
p141
tp142
Rp143
sS'RAS_PI3K_cat_PIPkf'
p144
F2.6e-08
sS'SHCP_bind_GRB2SOSkf'
p145
g6
(g10
S'\xfe\xf3w#\x18\xcd\xe8>'
p146
tp147
Rp148
sS'ErbB1P_ErbBXP_bindkf'
p149
F5e-07
sS'GRB2_bind_GAP_2kr'
p150
g6
(g10
S'\xdfc4\x18\xe9\x1b\xe9?'
p151
tp152
Rp153
sS'MEKPP_ERKPkc'
p154
g6
(g10
S'\xc0\xc6\xed\xf3\xc5\x93l@'
p155
tp156
Rp157
sS'EGF_bind_ErbB1dkr'
p158
F0.0033
sS'MEKP_PP2kf'
p159
g6
(g10
S'`p!M.\xdb:>'
p160
tp161
Rp162
sS'ERKPP_PP3kf'
p163
g6
(g10
S'J\x1a\x87\xb9\xab\x0bF?'
p164
tp165
Rp166
sS'MEKP_PP2kc'
p167
g6
(g10
S'\xedq\xa1\xeb\x92M\xdd?'
p168
tp169
Rp170
sS'ErbB1L_bind_ErbB1Lkf'
p171
F7.44622e-06
sS'RASGTP_bind_bound_GRB2_SOSkr'
p172
g6
(g10
S'X\x0c\xfb!yk\xd8?'
p173
tp174
Rp175
sS'PIP3_dephoskr'
p176
g6
(g10
S'\xaa\xea=\x0fsu\xbf?'
p177
tp178
Rp179
sS'ERKPP_PP3kc'
p180
g6
(g10
S'2\xf8\xb7\x11\x0e\xde\xa3?'
p181
tp182
Rp183
sS'GAB1_bind_PI3Kkf'
p184
g6
(g10
S'\xc9\x97\xdetj\xf6\xc7>'
p185
tp186
Rp187
sS'Akt_path_intern_23_PI3Kdimers_kr'
p188
F0.0005
sS'ErbB1L_bind_ErbB1Lkr'
p189
F0.16
sS'RASGTP_bind_bound_GRB2_SOSkf'
p190
g6
(g10
S'W\xa9\xa7{\x9b\x8a\x7f>'
p191
tp192
Rp193
sS'MEKP_PP2kr'
p194
g6
(g10
S'\xfe\x00\xfc\xfe\x9e\xde\xb8?'
p195
tp196
Rp197
sS'ERKPP_PP3kr'
p198
g6
(g10
S'\x9d\x0bD\xc65\xbb\x1e@'
p199
tp200
Rp201
sS'kcd14'
p202
g6
(g10
S'S\xc2\xf0\xa8/\xf5;@'
p203
tp204
Rp205
sS'GAB1_bind_PI3Kkr'
p206
g6
(g10
S'\xae\xbcH\xd8\xd6\xf4\xb1?'
p207
tp208
Rp209
sS'Akt_path_intern_23_PI3Kdimers_kf'
p210
F5e-05
sS'ErbB23_PI3K_cat_3kc'
p211
F2e-05
sS'Ras_intrinsic_function_GDPexchange'
p212
F3.67e-10
sS'GAP_bind_SHCPkr'
p213
g6
(g10
S'h\xc8\x07PF\xcc\xda?'
p214
tp215
Rp216
sS'ErbB23_bind_PI3K_1kr'
p217
F0.1
sS'ErbB1_bind_ATPkr'
p218
g6
(g10
S"\x82(\xaf\xb2'\n\n@"
p219
tp220
Rp221
sS'RAFP_MEKPkc'
p222
g6
(g10
S'-9<w\xd4\x1c\x1c@'
p223
tp224
Rp225
sS'Pase9t_dephos_GAB1PPkc'
p226
g6
(g10
S'\x86U\xa7\xd8\xeb\xe3\x80?'
p227
tp228
Rp229
sS'CPPE_bind_ErbB1dimerskf'
p230
g6
(g10
S'N\xc0[\xc3\xac\xe8\x17='
p231
tp232
Rp233
sS'PIP3_bind_PDK1kf'
p234
g6
(g10
S'\x1a4\xc3\xc8&Y\xfa<'
p235
tp236
Rp237
sS'AKT_PIP3_bind_PDK1kf'
p238
g6
(g10
S'\x86\xcf\xc1\xfc!\x95\xc2>'
p239
tp240
Rp241
sS'PIP2_PI3K_catalysiskc'
p242
g6
(g10
S'\xde_\xe9\xd16F\xe6?'
p243
tp244
Rp245
sS'ErbBP4_bind_DEPkf'
p246
F5e-05
sS'CPPE_bind_ErbB1dimerskr'
p247
g6
(g10
S'_\x9e+\xd4\x81n]?'
p248
tp249
Rp250
sS'GAP_bind_SHCPkf'
p251
g6
(g10
S';\x0ej\x9c\xc9\x06\xa2>'
p252
tp253
Rp254
sS'ErbB1_bind_ATPkf'
p255
g6
(g10
S'\xac z$cd->'
p256
tp257
Rp258
sS'ErbBP4_bind_DEPkr'
p259
g6
(g10
S'\x9d4r\x8c\x08e\xbc>'
p260
tp261
Rp262
sS'PIP3_bind_PDK1kr'
p263
g6
(g10
S'4\x1dH\xb5`\xa9E@'
p264
tp265
Rp266
sS'AKT_PIP3_bind_PDK1kr'
p267
g6
(g10
S'F\xf4\x82\xc1*{\xa0?'
p268
tp269
Rp270
sS'ErbB2_bind_ErbB2kf'
p271
g6
(g10
S'@+\x0f2\x17C\x11>'
p272
tp273
Rp274
sS'ErbB1L_bind_ErbB3kr'
p275
F0.016
sS'GRB2_bind_GAP_2kf'
p276
g6
(g10
S'\x9f\xa4-x\x01\xa6\xcf>'
p277
tp278
Rp279
sS'PIP2_bind_PI3K_1kr'
p280
g6
(g10
S'\x9a\xc1\xec\xcc\xa7\xb6\xea?'
p281
tp282
Rp283
sS'PIP3_bind_AKTkf'
p284
g6
(g10
S'\x1cB\x8d\x01\xf7\xcd\xfc>'
p285
tp286
Rp287
sS'ErbB23_PI3K_cat_5kc'
p288
F2e-05
sS'EGF_bind_ErbB1kr'
p289
g6
(g10
S'\x1e\x93\xa7\x99=\xf4{?'
p290
tp291
Rp292
sS'PIP3_dephoskc'
p293
g6
(g10
S'\xb6\x8b?ST\x92\xcf?'
p294
tp295
Rp296
sS'ErbB2_bind_ErbB4kr'
p297
g6
(g10
S'7j\x18Beu\xe5?'
p298
tp299
Rp300
sS'kcp21'
p301
g6
(g10
S'\xc3 4\xf0\x1f\x07\xa0?'
p302
tp303
Rp304
sS'PIP2_bind_PI3K_1kf'
p305
g6
(g10
S'\x07-\x9c\r\xf6Wj>'
p306
tp307
Rp308
sS'PIP3_bind_AKTkr'
p309
g6
(g10
S'ni\xc1\x0c\xaf\xdfu?'
p310
tp311
Rp312
sS'ErbB2_bind_ErbB2kr'
p313
g6
(g10
S'\x80\x0c\xd6\x80-[{?'
p314
tp315
Rp316
sS'ErbB1L_bind_ErbB3kf'
p317
F3.73632e-08
sS'EGF_bind_ErbB1kf'
p318
g6
(g10
S'\xcc9\xc2S\x0b1=A'
p319
tp320
Rp321
sS'ErbB2_bind_ErbB4kf'
p322
g6
(g10
S'A\x907\xbf#\xa9k>'
p323
tp324
Rp325
sS'ErbB23_PI3K_cat_1kc'
p326
F2e-05
sS'RAS_PI3K_cat_PIPkc'
p327
F0.2
sS'ErbB23_bind_PI3K_5kf'
p328
F1.33e-08
sS'CPP_intkr'
p329
g6
(g10
S'\x1a\xc3l\x95\x81n\xd2<'
p330
tp331
Rp332
sS'kcp24'
p333
g6
(g10
S'k\x04\x9e\x0b[k\xc8?'
p334
tp335
Rp336
sS'RAFP_MEKkr'
p337
g6
(g10
S'e\x05\xc0\nGD\x83?'
p338
tp339
Rp340
sS'ERKPP_phos_GAB1Pkc'
p341
g6
(g10
S'p7\xa9d\xa4h-@'
p342
tp343
Rp344
sS'ErbB1_bind_ErbB4kf'
p345
g6
(g10
S'Z\x8d\x8a\xe7\x15YK>'
p346
tp347
Rp348
sS'ErbB23_bind_PI3K_6kf'
p349
F1.33e-08
sS'CPP_intkf'
p350
g6
(g10
S'\x06(y\xec3\x06`>'
p351
tp352
Rp353
sS'RAFP_MEKkc'
p354
g6
(g10
S'\xdb\xd22A\xc0J\x04@'
p355
tp356
Rp357
sS'ErbB1_bind_ErbB4kr'
p358
g6
(g10
S'j\x90\x95\x19\xcb\xa4\xa0?'
p359
tp360
Rp361
sS'RAFP_MEKkf'
p362
g6
(g10
S'R\x96\r\xd4\xa7\xa4\xb2>'
p363
tp364
Rp365
sS'SOSP_bind_GRB2kf'
p366
g6
(g10
S'\xb1\xde\xb2z\xa1\x98\xb2>'
p367
tp368
Rp369
sS'PIP2_chain_PI3Kkr'
p370
g6
(g10
S'\xf0\xf0\xb5\xdf\x9a\x0e\xe1?'
p371
tp372
Rp373
sS'kcd43'
p374
g6
(g10
S'\xbb\xe3\xa9\xfaO\xe6Q@'
p375
tp376
Rp377
sS'kint_no_cPP_2kf'
p378
g6
(g10
S'\xb0\x1a\xc4\xff\xa1\xd4-?'
p379
tp380
Rp381
sS'kdeg_8'
p382
F0.000416
sS'GRB2_bind_GAPkr'
p383
g6
(g10
S'\xd0\xa8\xbd\x96\x1a\xb7\x10@'
p384
tp385
Rp386
sS'kcd44'
p387
g6
(g10
S'\x19K\xc8E\xdb\xe6&@'
p388
tp389
Rp390
sS'kcp14'
p391
g6
(g10
S"\xce\x8b>\xa9'\x8c\xe1?"
p392
tp393
Rp394
sS'PDK1_AKT_catalysiskc'
p395
g6
(g10
S'a\xf8\xa6\x80\xa48L@'
p396
tp397
Rp398
sS'kdeg_1'
p399
g6
(g10
S'\xc5\x18\xb1&\xdd\x1e\xc6>'
p400
tp401
Rp402
sS'kdeg_6'
p403
F0.000416
sS'kdeg_7'
p404
F0.000416
sS'kdeg_4'
p405
g6
(g10
S'\xa9\x18\xf4n\x08tA?'
p406
tp407
Rp408
sS'kdeg_5'
p409
g6
(g10
S'\xe1\xb7H\x7f\xd0@%?'
p410
tp411
Rp412
sS'GRB2_bind_GAPkf'
p413
g6
(g10
S'H(~\x8f7\x03\xb8>'
p414
tp415
Rp416
sS'kint_no_cPP_2kr'
p417
g6
(g10
S't \xc9\x0f\xcc\x0e\xf5>'
p418
tp419
Rp420
sS'ERKPP_phos_GAB1Pkf'
p421
g6
(g10
S'y\x00\xce*\x1f\xe3\xdf>'
p422
tp423
Rp424
sS'ErbBP1_bind_DEPkf'
p425
F5e-05
sS'ErbB1L_bind_ErbB4kf'
p426
F3.73632e-08
sS'CPP_bind_ErbB1dimerskr'
p427
g6
(g10
S'\x9d\xe9I(e\x8b\x16?'
p428
tp429
Rp430
sS'AKTPP_phos_RAFPkr'
p431
g6
(g10
S'_\xd2\x97>F\xde\xb5?'
p432
tp433
Rp434
sS'ErbB23_PI3K_cat_4kc'
p435
F2e-05
sS'ErbB1L_bind_ErbB4kr'
p436
F0.016
sS'CPP_bind_ErbB1dimerskf'
p437
g6
(g10
S'\x10j\xddu\xea\x9b\xe8>'
p438
tp439
Rp440
sS'ErbBP1_bind_DEPkr'
p441
g6
(g10
S'w\x99\xfbt\xdc\x0b\x18?'
p442
tp443
Rp444
sS'ErbB23_PI3K_cat_6kc'
p445
F2e-05
sS'AKTPP_phos_RAFPkf'
p446
g6
(g10
S'<\x88\x00\x9b\xf3\x80\xcf>'
p447
tp448
Rp449
sS'AKTPP_phos_RAFPkc'
p450
g6
(g10
S'g~D\xb8\xa4z\x15@'
p451
tp452
Rp453
sS'SHC_phoskf'
p454
g6
(g10
S'\xb9\xe8\n\xf7C\x85\x0b@'
p455
tp456
Rp457
sS'ErbB1_bind_ErbB2kf'
p458
g6
(g10
S"D\x89aK'\xfbP>"
p459
tp460
Rp461
sS'PIP2_chain_PI3Kkf'
p462
g6
(g10
S'\xd9\x89\x8c\xb7\x19\xb4\xd8>'
p463
tp464
Rp465
sS'ErbB1L_bind_ErbB2kr'
p466
F0.016
sS'ERKPP_phos_GAB1Pkr'
p467
g6
(g10
S'\x9e\x1b\xe19&\xec\xa4?'
p468
tp469
Rp470
sS'ErbB23_bind_PI3K_6kr'
p471
F0.1
sS'SOS_bind_SHCP_GRB2kr'
p472
g6
(g10
S'\xcbl7\x9f\xbbf\xae?'
p473
tp474
Rp475
sS'ErbB1_bind_ErbB2kr'
p476
g6
(g10
S'\x99_FW\xe4{\xcb?'
p477
tp478
Rp479
sS'ErbB23_bind_PI3K_5kr'
p480
F0.1
sS'SHC_phoskr'
p481
g6
(g10
S'\x13-\xeb>\xcd\x89\x8e?'
p482
tp483
Rp484
sS'ErbB1L_bind_ErbB2kf'
p485
F3.73632e-08
sS'SOSP_bind_GRB2kr'
p486
g6
(g10
S'U\xde\x80<+\xe6\xef?'
p487
tp488
Rp489
sS'SOS_bind_SHCP_GRB2kf'
p490
g6
(g10
S'\xc6\xbb/x\x97Q\x14?'
p491
tp492
Rp493
sS'GRB2_bind_GAB1kf'
p494
g6
(g10
S'n\x17\xde\xc2\xe4IH?'
p495
tp496
Rp497
sS'kcd42'
p498
g6
(g10
S'\xd3\x87S\x0c9\xe3R@'
p499
tp500
Rp501
sS'Akt_path_intern_1Xdimers_kf'
p502
F5e-05
sS'Ras_intrinsic_function_GTPase'
p503
F2.3e-05
sS'GRB2_SOS_bind_GAPkf'
p504
g6
(g10
S'\xf4\x87\xa67\xbf\t\xef>'
p505
tp506
Rp507
sS'kcd41'
p508
g6
(g10
S'@)\xbd\xcf\xcfym@'
p509
tp510
Rp511
sS'RASGTP_bind_PI3Kkf'
p512
F1e-08
sS'RAFP_MEKPkf'
p513
g6
(g10
S'\xde\x19\x1f\x16\x1bK\x03?'
p514
tp515
Rp516
sS'GRB2_bind_GAB1kr'
p517
g6
(g10
S'\x8aQg\x7f\xdc\xf9\xcf?'
p518
tp519
Rp520
sS'RASGTP_bind_PI3Kkr'
p521
F0.1
sS'Akt_path_intern_1Xdimers_kr'
p522
F0.0005
sS'PIP2_self_catalysiskc'
p523
g6
(g10
S'y\xaa-;\xa8\xef+@'
p524
tp525
Rp526
sS'GRB2_SOS_bind_GAPkr'
p527
g6
(g10
S'F1\x11\xa8\xa01\xc2?'
p528
tp529
Rp530
sS'RASGTP_unbind_GRB2_SOSkf'
p531
g6
(g10
S'\x1e\xbe\x89M\xd7o\xb9?'
p532
tp533
Rp534
sS'MEKPP_ERKkr'
p535
g6
(g10
S'u\xc6s\xdf58\xc7?'
p536
tp537
Rp538
sS'kcd21'
p539
g6
(g10
S'\xa3\x81\x88\x127\x01%@'
p540
tp541
Rp542
sS'ErbB1_bind_ErbB1Lkf'
p543
F7.44622e-06
sS'kint_no_cPP_1kr'
p544
g6
(g10
S'Yl\xa3D\x80\xb1\x1e?'
p545
tp546
Rp547
sS'kcd22'
p548
g6
(g10
S'\\\xeb\x95\x97\xd3\xbd\x10@'
p549
tp550
Rp551
sS'kcd24'
p552
g6
(g10
S'\xb4^\x8f\xa4\xd8k1@'
p553
tp554
Rp555
sS'Akt_path_intern_2Xdimers_kr'
p556
F0.0005
sS'MEKPP_ERKkf'
p557
g6
(g10
S'\xb4\x0e\xe5\xbd\xf5\x98\xd0>'
p558
tp559
Rp560
sS'kcp44'
p561
g6
(g10
S'\x02+\xe2yu\t\xc5?'
p562
tp563
Rp564
sS'MEKPP_ERKkc'
p565
g6
(g10
S'\x00\xe6\x17r\xdeU.@'
p566
tp567
Rp568
sS'RASGTP_unbind_GRB2_SOSkr'
p569
g6
(g10
S"T\xa7b\xb7/'\xbd>"
p570
tp571
Rp572
sS'kcp43'
p573
g6
(g10
S'\x95\xd98\xf0\x0fk\xb4?'
p574
tp575
Rp576
sS'Akt_path_intern_2Xdimers_kf'
p577
F5e-05
sS'ErbB1_bind_ErbB1Lkr'
p578
F0.16
sS'kint_no_cPP_1kf'
p579
g6
(g10
S"'\x9d:A}\xc9~?"
p580
tp581
Rp582
sS'kcp42'
p583
g6
(g10
S'\xda]\xcc\x8d%\x86\xeb?'
p584
tp585
Rp586
sS'GAP_bind_SHCP_GRB2_SOSkr'
p587
g6
(g10
S'\x0e\x13\xea\xe3\x1d\xb5\xc4?'
p588
tp589
Rp590
sS'ErbB23_bind_PI3K_3kf'
p591
F1.33e-08
sS'ErbB23_bind_PI3K_1kf'
p592
F1.33e-08
sS'Pase9t_dephos_GAB1PPkr'
p593
g6
(g10
S'D\x80\xec>\xa8\xfb\x92?'
p594
tp595
Rp596
sS'kcp11'
p597
g6
(g10
S'S\xbd\xd6&Fv\xb6?'
p598
tp599
Rp600
sS'GAP_bind_SHCP_GRB2_SOSkf'
p601
g6
(g10
S'\xc7\xd72\xbd&t`>'
p602
tp603
Rp604
sS'PDK1_AKTP_catalysiskc'
p605
g6
(g10
S'\x1bT\x99\xbby\x8dT@'
p606
tp607
Rp608
sS'ErbB23_bind_PI3K_3kr'
p609
F0.1
sS'ErbB23_bind_PI3K_2kf'
p610
F1.33e-08
sS'kcp12'
p611
g6
(g10
S'\xee\x01Q\x7f\xf2\xd4\xc4?'
p612
tp613
Rp614
sS'kcp41'
p615
g6
(g10
S'\xfb\x8a\x99"p\x11\xcb?'
p616
tp617
Rp618
sS'kcp13'
p619
g6
(g10
S'\x90B{t)\xaa\xe3?'
p620
tp621
Rp622
sS'GAP_bind_SHCkf'
p623
g6
(g10
S'\x9b\xde9\xefY[\x8e>'
p624
tp625
Rp626
sS'RASGDP_bind_bound_GRB2_SOSkf'
p627
g6
(g10
S'\xe1\xb4\xb5\xf1-\x90\xe0>'
p628
tp629
Rp630
sS'ErbB4_bind_ATPkf'
p631
g6
(g10
S'P3\xa5\xec\xfc\x0fT>'
p632
tp633
Rp634
sS'ErbB1_bind_ErbB3kr'
p635
g6
(g10
S'\xc4\x8e\x8a\x8fQ\xe1w?'
p636
tp637
Rp638
sS'SHC_unbound_phoskf'
p639
g6
(g10
S'\xc0\x03\xb22\x10E\xd1<'
p640
tp641
Rp642
sS'MEKPP_ERKPkr'
p643
g6
(g10
S'\x0f\xaf\xa8G\x0f\x8c\x81?'
p644
tp645
Rp646
sS'EGFE_bind_ErbBEkr'
p647
g6
(g10
S'\xd9D\x89\xbf\n\xbd`?'
p648
tp649
Rp650
sS'ErbB4_bind_ATPkr'
p651
g6
(g10
S'\xb1g\xa0r\x08\xe8\xab?'
p652
tp653
Rp654
sS'ErbB2_lateralsignal_k4'
p655
g6
(g10
S'\xed+\xa7"\xaf\x90\xb0>'
p656
tp657
Rp658
sS'ErbB2_lateralsignal_k3'
p659
g6
(g10
S'\x93\x0bZ\r\xc9"\x8f>'
p660
tp661
Rp662
sS'GAP_bind_SHCkr'
p663
g6
(g10
S'\x97 yf:\xa6\xd7?'
p664
tp665
Rp666
sS'RASGDP_bind_bound_GRB2_SOSkr'
p667
g6
(g10
S'\xf9OVI2?\xe3?'
p668
tp669
Rp670
sS'GAB1_bind_ATPkf'
p671
g6
(g10
S'\xa8|\x83\xfd\xa1\x87b>'
p672
tp673
Rp674
sS'EGFE_bind_ErbBEkf'
p675
g6
(g10
S'\xdd\xc9\xe4\x0csC\xc3?'
p676
tp677
Rp678
sS'ErbB1_bind_ErbB3kf'
p679
g6
(g10
S'@~\xe8Z\xa7\xc2\x9a>'
p680
tp681
Rp682
sS'SHC_unbound_phoskr'
p683
g6
(g10
S'\xd7t\x16\xf7\xc6o\x81?'
p684
tp685
Rp686
sS'MEKPP_ERKPkf'
p687
g6
(g10
S'\x0f,\xaa\x9f\xa4|\xf1>'
p688
tp689
Rp690
sS'RASGTP_RAF_catkc'
p691
F10.0
sS'ErbB1_bind_ErbB1kf'
p692
g6
(g10
S'u#\x0f)\xa2\xd7 ?'
p693
tp694
Rp695
sS'PP3_degkf'
p696
g6
(g10
S'2q\xe7\xfcz9\x9b?'
p697
tp698
Rp699
sS'RASGTP_bind_RAFkr'
p700
g6
(g10
S'+\x1b\xa1\x1a\xe2\xa1\xa8?'
p701
tp702
Rp703
sS'GAB1_bind_PI3K_2kr'
p704
g6
(g10
S'}\x92\xf2\x1f\x16\xc0\x84?'
p705
tp706
Rp707
sS'SHP2_dephos_GAB1Pkf'
p708
g6
(g10
S'\x85\xec\xab\xfcT\xd6\x05?'
p709
tp710
Rp711
sS'kcd23'
p712
g6
(g10
S'\r"\x81\xde&\xc5T@'
p713
tp714
Rp715
sS'ErbB1_bind_ErbB1kr'
p716
g6
(g10
S'\xac\xaam\xe87g\x92?'
p717
tp718
Rp719
sS'SOS_bind_GAP_GRB2kf'
p720
g6
(g10
S'\x05\xe0W\x8ck \xe7>'
p721
tp722
Rp723
sS'RASGTP_bind_RAFkf'
p724
g6
(g10
S'\xf8\x0ca\x86\xb7\xbc\xe3>'
p725
tp726
Rp727
sS'GAB1_bind_PI3K_2kf'
p728
g6
(g10
S'\xd1\x81\x88A\xf4\xa4\x1c?'
p729
tp730
Rp731
sS'AKTPP_dephoskf'
p732
g6
(g10
S'\xd5\xaa\xcc \xe0v|>'
p733
tp734
Rp735
sS'AKTPP_dephoskc'
p736
g6
(g10
S'0\xd1*\xfe\x98\xf4\xb4?'
p737
tp738
Rp739
sS'SOS_bind_GAP_SHCP_GRB2kf'
p740
g6
(g10
S'S\x9a\x8b\xdc\xf1\xe7\xe6>'
p741
tp742
Rp743
sS'ErbBP2_bind_DEPkf'
p744
F5e-05
sS'AKTP_dephoskf'
p745
g6
(g10
S'\xf1\x87\xce\x03\x8aoY?'
p746
tp747
Rp748
sS'GAB1_phoskc'
p749
g6
(g10
S']y\x81=\xef\x00\xdc?'
p750
tp751
Rp752
sS'AKTP_dephoskc'
p753
g6
(g10
S'\x9a\x82\xf2\xf4\\|\xba?'
p754
tp755
Rp756
sS'PIP3_dephoskf'
p757
g6
(g10
S'C\xd0~7\x12\x03\xe3>'
p758
tp759
Rp760
sS'SOS_bind_GAP_SHCP_GRB2kr'
p761
g6
(g10
S'&\xb0E6I\xa4\x93?'
p762
tp763
Rp764
sS'ErbBP2_bind_DEPkr'
p765
g6
(g10
S'\x95\x88W\xc9\x12qZA'
p766
tp767
Rp768
sS'AKTPP_dephoskr'
p769
g6
(g10
S'\x12\xe6\xf2*9N\xdd?'
p770
tp771
Rp772
sS'ErbB23_PI3K_cat_2kc'
p773
F2e-05
sS'AKTP_dephoskr'
p774
g6
(g10
S'\x82\xd2\xb0\x96\x0cD\xc6?'
p775
tp776
Rp777
s.